; Function Attrs: nofree norecurse nosync nounwind memory(argmem: readwrite) uwtable
define internal void @YuvToRgb565Row(ptr noalias noundef readonly captures(none) %0, ptr noalias noundef readonly captures(none) %1, ptr noalias noundef readonly captures(none) %2, ptr noalias noundef writeonly captures(address) %3, i32 noundef %4) #2 {
  %6 = shl i32 %4, 1
  %7 = and i32 %6, -4
  %8 = sext i32 %7 to i64
  %9 = getelementptr inbounds i8, ptr %3, i64 %8
  %.not26 = icmp eq i32 %7, 0
  br i1 %.not26, label %._crit_edge, label %.lr.ph

.lr.ph:                                           ; preds = %5, %.lr.ph
  %.030 = phi ptr [ %93, %.lr.ph ], [ %0, %5 ]
  %.02029 = phi ptr [ %94, %.lr.ph ], [ %1, %5 ]
  %.02128 = phi ptr [ %96, %.lr.ph ], [ %3, %5 ]
  %.02227 = phi ptr [ %95, %.lr.ph ], [ %2, %5 ]
  %10 = load i8, ptr %.030, align 1, !tbaa !11
  %11 = zext i8 %10 to i32
  %12 = load i8, ptr %.02029, align 1, !tbaa !11
  %13 = zext i8 %12 to i32
  %14 = load i8, ptr %.02227, align 1, !tbaa !11
  %15 = zext i8 %14 to i32
  %16 = mul nuw nsw i32 %11, 19077
  %17 = lshr i32 %16, 8
  %18 = mul nuw nsw i32 %15, 26149
  %19 = lshr i32 %18, 8
  %20 = add nuw nsw i32 %19, %17
  %21 = add nsw i32 %20, -14234
  %22 = icmp ult i32 %21, 16384
  %23 = lshr i32 %21, 6
  %24 = icmp samesign ult i32 %20, 14234
  %25 = select i1 %24, i32 0, i32 248
  %26 = mul nuw nsw i32 %13, 6419
  %27 = lshr i32 %26, 8
  %28 = mul nuw nsw i32 %15, 13320
  %29 = lshr i32 %28, 8
  %30 = add nuw nsw i32 %29, %27
  %31 = sub nsw i32 %17, %30
  %32 = add nsw i32 %31, 8708
  %33 = icmp ult i32 %32, 16384
  %34 = lshr i32 %32, 6
  %35 = icmp slt i32 %31, -8708
  %36 = select i1 %35, i32 0, i32 255
  %37 = select i1 %33, i32 %34, i32 %36
  %38 = mul nuw nsw i32 %13, 33050
  %39 = lshr i32 %38, 8
  %40 = add nuw nsw i32 %39, %17
  %41 = add nsw i32 %40, -17685
  %42 = icmp ult i32 %41, 16384
  %43 = lshr i32 %41, 9
  %44 = icmp samesign ult i32 %40, 17685
  %45 = select i1 %44, i32 0, i32 31
  %46 = select i1 %42, i32 %43, i32 %45
  %47 = and i32 %23, 248
  %48 = select i1 %22, i32 %47, i32 %25
  %49 = lshr i32 %37, 5
  %50 = or i32 %49, %48
  %51 = shl nuw nsw i32 %37, 3
  %52 = and i32 %51, 224
  %53 = or i32 %52, %46
  %54 = trunc i32 %50 to i8
  store i8 %54, ptr %.02128, align 1, !tbaa !11
  %55 = trunc i32 %53 to i8
  %56 = getelementptr inbounds nuw i8, ptr %.02128, i64 1
  store i8 %55, ptr %56, align 1, !tbaa !11
  %57 = getelementptr inbounds nuw i8, ptr %.030, i64 1
  %58 = load i8, ptr %57, align 1, !tbaa !11
  %59 = zext i8 %58 to i32
  %60 = getelementptr inbounds nuw i8, ptr %.02128, i64 2
  %61 = mul nuw nsw i32 %59, 19077
  %62 = lshr i32 %61, 8
  %63 = add nuw nsw i32 %62, %19
  %64 = add nsw i32 %63, -14234
  %65 = icmp ult i32 %64, 16384
  %66 = lshr i32 %64, 6
  %67 = icmp samesign ult i32 %63, 14234
  %68 = select i1 %67, i32 0, i32 248
  %69 = sub nsw i32 %62, %30
  %70 = add nsw i32 %69, 8708
  %71 = icmp ult i32 %70, 16384
  %72 = lshr i32 %70, 6
  %73 = icmp slt i32 %69, -8708
  %74 = select i1 %73, i32 0, i32 255
  %75 = select i1 %71, i32 %72, i32 %74
  %76 = add nuw nsw i32 %62, %39
  %77 = add nsw i32 %76, -17685
  %78 = icmp ult i32 %77, 16384
  %79 = lshr i32 %77, 9
  %80 = icmp samesign ult i32 %76, 17685
  %81 = select i1 %80, i32 0, i32 31
  %82 = select i1 %78, i32 %79, i32 %81
  %83 = and i32 %66, 248
  %84 = select i1 %65, i32 %83, i32 %68
  %85 = lshr i32 %75, 5
  %86 = or i32 %84, %85
  %87 = shl nuw nsw i32 %75, 3
  %88 = and i32 %87, 224
  %89 = or i32 %88, %82
  %90 = trunc i32 %86 to i8
  store i8 %90, ptr %60, align 1, !tbaa !11
  %91 = trunc i32 %89 to i8
  %92 = getelementptr inbounds nuw i8, ptr %.02128, i64 3
  store i8 %91, ptr %92, align 1, !tbaa !11
  %93 = getelementptr inbounds nuw i8, ptr %.030, i64 2
  %94 = getelementptr inbounds nuw i8, ptr %.02029, i64 1
  %95 = getelementptr inbounds nuw i8, ptr %.02227, i64 1
  %96 = getelementptr inbounds nuw i8, ptr %.02128, i64 4
  %.not = icmp eq ptr %96, %9
  br i1 %.not, label %._crit_edge, label %.lr.ph, !llvm.loop !22

._crit_edge:                                      ; preds = %.lr.ph, %5
  %.022.lcssa = phi ptr [ %2, %5 ], [ %95, %.lr.ph ]
  %.021.lcssa = phi ptr [ %3, %5 ], [ %9, %.lr.ph ]
  %.020.lcssa = phi ptr [ %1, %5 ], [ %94, %.lr.ph ]
  %.0.lcssa = phi ptr [ %0, %5 ], [ %93, %.lr.ph ]
  %97 = and i32 %4, 1
  %.not23 = icmp eq i32 %97, 0
  br i1 %.not23, label %146, label %98

98:                                               ; preds = %._crit_edge
  %99 = load i8, ptr %.0.lcssa, align 1, !tbaa !11
  %100 = zext i8 %99 to i32
  %101 = load i8, ptr %.020.lcssa, align 1, !tbaa !11
  %102 = zext i8 %101 to i32
  %103 = load i8, ptr %.022.lcssa, align 1, !tbaa !11
  %104 = zext i8 %103 to i32
  %105 = mul nuw nsw i32 %100, 19077
  %106 = lshr i32 %105, 8
  %107 = mul nuw nsw i32 %104, 26149
  %108 = lshr i32 %107, 8
  %109 = add nuw nsw i32 %108, %106
  %110 = add nsw i32 %109, -14234
  %111 = icmp ult i32 %110, 16384
  %112 = lshr i32 %110, 6
  %113 = icmp samesign ult i32 %109, 14234
  %114 = select i1 %113, i32 0, i32 248
  %115 = mul nuw nsw i32 %102, 6419
  %116 = lshr i32 %115, 8
  %117 = mul nuw nsw i32 %104, 13320
  %118 = lshr i32 %117, 8
  %119 = add nuw nsw i32 %116, %118
  %120 = sub nsw i32 %106, %119
  %121 = add nsw i32 %120, 8708
  %122 = icmp ult i32 %121, 16384
  %123 = lshr i32 %121, 6
  %124 = icmp slt i32 %120, -8708
  %125 = select i1 %124, i32 0, i32 255
  %126 = select i1 %122, i32 %123, i32 %125
  %127 = mul nuw nsw i32 %102, 33050
  %128 = lshr i32 %127, 8
  %129 = add nuw nsw i32 %128, %106
  %130 = add nsw i32 %129, -17685
  %131 = icmp ult i32 %130, 16384
  %132 = lshr i32 %130, 9
  %133 = icmp samesign ult i32 %129, 17685
  %134 = select i1 %133, i32 0, i32 31
  %135 = select i1 %131, i32 %132, i32 %134
  %136 = and i32 %112, 248
  %137 = select i1 %111, i32 %136, i32 %114
  %138 = lshr i32 %126, 5
  %139 = or i32 %137, %138
  %140 = shl nuw nsw i32 %126, 3
  %141 = and i32 %140, 224
  %142 = or i32 %141, %135
  %143 = trunc i32 %139 to i8
  store i8 %143, ptr %.021.lcssa, align 1, !tbaa !11
  %144 = trunc i32 %142 to i8
  %145 = getelementptr inbounds nuw i8, ptr %.021.lcssa, i64 1
  store i8 %144, ptr %145, align 1, !tbaa !11
  br label %146

146:                                              ; preds = %98, %._crit_edge
  ret void
}